target datalayout = "e-m:e-p270:32:32-p271:32:32-p272:64:64-i64:64-i128:128-f80:128-n8:16:32:64-S128"
target triple = "x86_64-pc-linux-gnu"

%struct.pcre2_memctl = type { ptr, ptr, ptr }
%struct.pcre2_real_compile_context_8 = type { %struct.pcre2_memctl, ptr, ptr, ptr, i64, i64, i16, i16, i32, i32, i32, i32 }

; Function Attrs: nounwind uwtable
define dso_local i32 @php_pcre2_set_newline(ptr noundef %0, i32 noundef %1) #0 {
  %3 = alloca i32, align 4
  %4 = alloca ptr, align 8
  %5 = alloca i32, align 4
  store ptr %0, ptr %4, align 8, !tbaa !23
  store i32 %1, ptr %5, align 4, !tbaa !30
  %6 = load i32, ptr %5, align 4, !tbaa !30
  switch i32 %6, label %12 [
    i32 1, label %7
    i32 2, label %7
    i32 3, label %7
    i32 4, label %7
    i32 5, label %7
    i32 6, label %7
  ]

7:                                                ; preds = %2, %2, %2, %2, %2, %2
  %8 = load i32, ptr %5, align 4, !tbaa !30
  %9 = trunc i32 %8 to i16
  %10 = load ptr, ptr %4, align 8, !tbaa !23
  %11 = getelementptr inbounds nuw %struct.pcre2_real_compile_context_8, ptr %10, i32 0, i32 7
  store i16 %9, ptr %11, align 2, !tbaa !54
  store i32 0, ptr %3, align 4
  br label %13

12:                                               ; preds = %2
  store i32 -29, ptr %3, align 4
  br label %13

13:                                               ; preds = %12, %7
  %14 = load i32, ptr %3, align 4
  ret i32 %14
}