; Function Attrs: mustprogress nofree norecurse nosync nounwind willreturn memory(argmem: write) uwtable
define dso_local range(i32 -29, 1) i32 @php_pcre2_set_newline(ptr noundef writeonly captures(none) %0, i32 noundef %1) local_unnamed_addr #5 {
  %.off = add i32 %1, -1
  %switch = icmp ult i32 %.off, 6
  br i1 %switch, label %3, label %6

3:                                                ; preds = %2
  %4 = trunc nuw i32 %1 to i16
  %5 = getelementptr inbounds nuw i8, ptr %0, i64 66
  store i16 %4, ptr %5, align 2, !tbaa !44
  br label %6

6:                                                ; preds = %2, %3
  %.0 = phi i32 [ 0, %3 ], [ -29, %2 ]
  ret i32 %.0
}